target datalayout = "e-m:e-p270:32:32-p271:32:32-p272:64:64-i64:64-i128:128-f80:128-n8:16:32:64-S128"
target triple = "x86_64-pc-linux-gnu"

%struct._lv_file_explorer_t = type { %struct._lv_obj_t, ptr, ptr, ptr, ptr, ptr, ptr, ptr, ptr, ptr, ptr, ptr, ptr, ptr, ptr, ptr, [128 x i8], i32 }
%struct._lv_obj_t = type { ptr, ptr, ptr, ptr, ptr, %struct.lv_area_t, i32, i16, i16 }
%struct.lv_area_t = type { i32, i32, i32, i32 }

; Function Attrs: nounwind uwtable
define void @lv_file_explorer_set_quick_access_path(ptr noundef %0, i32 noundef %1, ptr noundef %2) #0 {
  %4 = alloca ptr, align 8
  %5 = alloca i32, align 4
  %6 = alloca ptr, align 8
  %7 = alloca ptr, align 8
  %8 = alloca i32, align 4
  %9 = alloca ptr, align 8
  store ptr %0, ptr %4, align 8, !tbaa !8
  store i32 %1, ptr %5, align 4, !tbaa !35
  store ptr %2, ptr %6, align 8, !tbaa !36
  br label %10

10:                                               ; preds = %3
  %11 = load ptr, ptr %4, align 8, !tbaa !8
  %12 = icmp ne ptr %11, null
  br i1 %12, label %17, label %13

13:                                               ; preds = %10
  br label %14

14:                                               ; preds = %13
  br label %15

15:                                               ; preds = %14
  br label %16

16:                                               ; preds = %15, %16
  br label %16

17:                                               ; preds = %10
  br label %18

18:                                               ; preds = %17
  call void @llvm.lifetime.start.p0(i64 8, ptr %7) #5
  %19 = load ptr, ptr %4, align 8, !tbaa !8
  store ptr %19, ptr %7, align 8, !tbaa !10
  %20 = load ptr, ptr %6, align 8, !tbaa !36
  %21 = icmp eq ptr %20, null
  br i1 %21, label %26, label %22

22:                                               ; preds = %18
  %23 = load ptr, ptr %6, align 8, !tbaa !36
  %24 = call i64 @lv_strlen(ptr noundef %23)
  %25 = icmp ule i64 %24, 0
  br i1 %25, label %26, label %27

26:                                               ; preds = %22, %18
  store i32 1, ptr %8, align 4
  br label %61

27:                                               ; preds = %22
  call void @llvm.lifetime.start.p0(i64 8, ptr %9) #5
  store ptr null, ptr %9, align 8, !tbaa !37
  %28 = load i32, ptr %5, align 4, !tbaa !35
  switch i32 %28, label %47 [
    i32 0, label %29
    i32 1, label %32
    i32 2, label %35
    i32 3, label %38
    i32 4, label %41
    i32 5, label %44
  ]

29:                                               ; preds = %27
  %30 = load ptr, ptr %7, align 8, !tbaa !10
  %31 = getelementptr inbounds nuw %struct._lv_file_explorer_t, ptr %30, i32 0, i32 9
  store ptr %31, ptr %9, align 8, !tbaa !37
  br label %48

32:                                               ; preds = %27
  %33 = load ptr, ptr %7, align 8, !tbaa !10
  %34 = getelementptr inbounds nuw %struct._lv_file_explorer_t, ptr %33, i32 0, i32 10
  store ptr %34, ptr %9, align 8, !tbaa !37
  br label %48

35:                                               ; preds = %27
  %36 = load ptr, ptr %7, align 8, !tbaa !10
  %37 = getelementptr inbounds nuw %struct._lv_file_explorer_t, ptr %36, i32 0, i32 11
  store ptr %37, ptr %9, align 8, !tbaa !37
  br label %48

38:                                               ; preds = %27
  %39 = load ptr, ptr %7, align 8, !tbaa !10
  %40 = getelementptr inbounds nuw %struct._lv_file_explorer_t, ptr %39, i32 0, i32 12
  store ptr %40, ptr %9, align 8, !tbaa !37
  br label %48

41:                                               ; preds = %27
  %42 = load ptr, ptr %7, align 8, !tbaa !10
  %43 = getelementptr inbounds nuw %struct._lv_file_explorer_t, ptr %42, i32 0, i32 13
  store ptr %43, ptr %9, align 8, !tbaa !37
  br label %48

44:                                               ; preds = %27
  %45 = load ptr, ptr %7, align 8, !tbaa !10
  %46 = getelementptr inbounds nuw %struct._lv_file_explorer_t, ptr %45, i32 0, i32 14
  store ptr %46, ptr %9, align 8, !tbaa !37
  br label %48

47:                                               ; preds = %27
  store i32 1, ptr %8, align 4
  br label %60

48:                                               ; preds = %44, %41, %38, %35, %32, %29
  %49 = load ptr, ptr %9, align 8, !tbaa !37
  %50 = load ptr, ptr %49, align 8, !tbaa !36
  %51 = icmp ne ptr %50, null
  br i1 %51, label %52, label %56

52:                                               ; preds = %48
  %53 = load ptr, ptr %9, align 8, !tbaa !37
  %54 = load ptr, ptr %53, align 8, !tbaa !36
  call void @lv_free(ptr noundef %54)
  %55 = load ptr, ptr %9, align 8, !tbaa !37
  store ptr null, ptr %55, align 8, !tbaa !36
  br label %56

56:                                               ; preds = %52, %48
  %57 = load ptr, ptr %6, align 8, !tbaa !36
  %58 = call ptr @lv_strdup(ptr noundef %57)
  %59 = load ptr, ptr %9, align 8, !tbaa !37
  store ptr %58, ptr %59, align 8, !tbaa !36
  store i32 0, ptr %8, align 4
  br label %60

60:                                               ; preds = %56, %47
  call void @llvm.lifetime.end.p0(i64 8, ptr %9) #5
  br label %61

61:                                               ; preds = %60, %26
  call void @llvm.lifetime.end.p0(i64 8, ptr %7) #5
  %62 = load i32, ptr %8, align 4
  switch i32 %62, label %64 [
    i32 0, label %63
    i32 1, label %63
  ]

63:                                               ; preds = %61, %61
  ret void

64:                                               ; preds = %61
  unreachable
}